LIBRARY	"pbvm120.dll"
EXPORTS
?ot_get_field_lv@@YGPAUvalue@@PAUvm_state@@PAU1@K@Z @1198
?ot_get_field_item_lv@@YGPAUvalue@@PAUvm_state@@PAU1@KK@Z @1405
?ot_get_next_evaled_arg_no_convert@@YGPAUvalue@@PAUvm_state@@@Z @2133
?ot_set_return_val@@YGXPAUvm_state@@PAUvalue@@@Z	@1039
?rt_create_obinst@@YGHPAUvm_state@@PA_WPAPAUpb_class@@@Z	@1314
?ot_create_obinst_at_lval@@YGHPAUvm_state@@PAUlvalue_ref@@HH@Z	@1262
?ob_set_ptr_field@@YGHPAUvm_state@@PAUpb_class@@HPAX@Z	@934
?ob_dup_string@@YGPA_WPAUvm_state@@PA_W@Z	@1363
?ot_get_valptr_arg@@YGPAXPAUvm_state@@PAK@Z	@1065
?ot_no_return_val@@YGXPAUvm_state@@@Z @1377
?ob_set_ulong_field@@YGHPAUvm_state@@HHH@Z @1171
?ob_get_ulong_field@@YGHPAUvm_state@@HH@Z @1086
?ot_get_curr_obinst_expr@@YGHPAUvm_state@@PAPAUpb_class@@PAK@Z @1239
?ot_get_simple_intarg@@YGFPAUvm_state@@PAK@Z @1062
?ot_array_create_unbounded@@YGPAUpb_array@@PAUvm_state@@HH@Z @1509
?ob_class_name_not_indirect@@YGPA_WPAUvm_state@@H@Z @1581
?ob_group_data_srch@@YGPAUgroup_data@@PAUvm_state@@F@Z @966
?ot_array_num_items@@YGHPAUvm_state@@PAUpb_array@@@Z @1516
?ot_get_next_lvalue_arg@@YGPAUlvalue_ref@@PAUvm_state@@PAK@Z @1260
?ot_array_index@@YGPAUvalue@@PAUvm_state@@PAUpb_array@@H@Z @1512
?ob_event_module_name@@YGPA_WPAUvm_state@@PAUgroup_data@@PAUclass_data@@F@Z @1349
?ot_free_val_ptr@@YGXPAUvm_state@@PAUvalue@@@Z @1214
?ob_get_group_name@@YGPA_WPAUvm_state@@F@Z @1127
?ob_get_first_user_field@@YGHPAUvm_state@@PAUpb_class@@@Z @1043
?ot_assign_ref_array@@YGXPAUvm_state@@PAUlvalue@@PAUpb_array@@FF@Z @1384
?ob_set_field@@YGXPAUvm_state@@PAUpb_class@@HPAUvalue@@@Z @1726
?ob_get_class_entry@@YGPAUclass_data@@PAUvm_state@@PAPAUgroup_data@@F@Z @1102
?ot_assign_ref_string@@YGXPAUvm_state@@PAUlvalue@@PA_WF@Z @1383
?ob_get_no_fields@@YGHPAUvm_state@@PAUpb_class@@@Z @1489
?ot_assign_ref_long@@YGXPAUvm_state@@PAUlvalue@@HF@Z @1323
?ob_get_field@@YGXPAUvm_state@@PAUpb_class@@HPAUvalue@@@Z @1725
?ot_get_ulongarg@@YGHPAUvm_state@@PAK@Z @1059
?rtRoutineExec@@YGHPAUvm_state@@HPAUpb_class@@HHPAUvalue@@HHHH@Z @1478
?ob_invoke_dynamic@@YGJPAUvalue@@HHPA_WHPAX0@Z @1301
?ob_get_current_stack_location@@YGPAUcurrent_stack_info@@PAUvm_state@@@Z @1606
